target datalayout = "e-m:e-p270:32:32-p271:32:32-p272:64:64-i64:64-i128:128-f80:128-n8:16:32:64-S128"
target triple = "x86_64-pc-linux-gnu"

%struct.expert_field = type { i32, i32 }
%struct._packet_info = type { ptr, ptr, i32, i32, %struct.nstime_t, %struct.nstime_t, %struct.nstime_t, i8, ptr, ptr, ptr, ptr, %struct._address, %struct._address, %struct._address, %struct._address, %struct._address, %struct._address, i32, ptr, i8, [3 x i8], %struct.anon, i32, i32, i32, i32, ptr, i8, ptr, ptr, i16, i16, i32, i32, i16, i32, i32, ptr, ptr, ptr, i8, i8, i16, i16, i16, i32, i16, i16, ptr, ptr, ptr, ptr, ptr, i32, i32 }
%struct.nstime_t = type { i64, i32 }
%struct._address = type { i32, i32, ptr, ptr }
%struct.anon = type { i8, [3 x i8] }

@hf_raknet_ip_version = internal global i32 0, align 4
@hf_raknet_ipv4_address = internal global i32 0, align 4
@hf_raknet_ipv6_address = internal global i32 0, align 4
@hf_raknet_port = internal global i32 0, align 4
@ett_raknet_system_address = internal global i32 0, align 4
@ei_raknet_ip_ver_invalid = internal global %struct.expert_field zeroinitializer, align 4
@.str.174 = private unnamed_addr constant [1 x i8] zeroinitializer, align 1
@.str.207 = private unnamed_addr constant [6 x i8] c"%s:%u\00", align 1
@.str.208 = private unnamed_addr constant [8 x i8] c"[%s]:%u\00", align 1

; Function Attrs: inlinehint nounwind null_pointer_is_valid sspstrong uwtable
define internal void @set_address(ptr noundef %0, i32 noundef %1, i32 noundef %2, ptr noundef %3) #5 {
  %5 = alloca ptr, align 8
  %6 = alloca i32, align 4
  %7 = alloca i32, align 4
  %8 = alloca ptr, align 8
  store ptr %0, ptr %5, align 8
  store i32 %1, ptr %6, align 4
  store i32 %2, ptr %7, align 4
  store ptr %3, ptr %8, align 8
  %9 = load i32, ptr %7, align 4
  %10 = icmp eq i32 %9, 0
  br i1 %10, label %11, label %14

11:                                               ; preds = %4
  br label %12

12:                                               ; preds = %11
  br label %13

13:                                               ; preds = %12
  br label %19

14:                                               ; preds = %4
  br label %15

15:                                               ; preds = %14
  br label %16

16:                                               ; preds = %15
  br label %17

17:                                               ; preds = %16
  br label %18

18:                                               ; preds = %17
  br label %19

19:                                               ; preds = %18, %13
  %20 = load i32, ptr %6, align 4
  %21 = load ptr, ptr %5, align 8
  %22 = getelementptr inbounds nuw %struct._address, ptr %21, i32 0, i32 0
  store i32 %20, ptr %22, align 8
  %23 = load i32, ptr %7, align 4
  %24 = load ptr, ptr %5, align 8
  %25 = getelementptr inbounds nuw %struct._address, ptr %24, i32 0, i32 1
  store i32 %23, ptr %25, align 4
  %26 = load ptr, ptr %8, align 8
  %27 = load ptr, ptr %5, align 8
  %28 = getelementptr inbounds nuw %struct._address, ptr %27, i32 0, i32 2
  store ptr %26, ptr %28, align 8
  %29 = load ptr, ptr %5, align 8
  %30 = getelementptr inbounds nuw %struct._address, ptr %29, i32 0, i32 3
  store ptr null, ptr %30, align 8
  ret void
}

; Function Attrs: null_pointer_is_valid sspstrong uwtable
define internal void @raknet_dissect_system_address(ptr noundef %0, i32 noundef %1, ptr noundef %2, ptr noundef %3, ptr noundef %4) #0 {
  %6 = alloca ptr, align 8
  %7 = alloca i32, align 4
  %8 = alloca ptr, align 8
  %9 = alloca ptr, align 8
  %10 = alloca ptr, align 8
  %11 = alloca ptr, align 8
  %12 = alloca ptr, align 8
  %13 = alloca i8, align 1
  %14 = alloca i32, align 4
  %15 = alloca i16, align 2
  %16 = alloca %struct._address, align 8
  %17 = alloca ptr, align 8
  store ptr %0, ptr %6, align 8
  store i32 %1, ptr %7, align 4
  store ptr %2, ptr %8, align 8
  store ptr %3, ptr %9, align 8
  store ptr %4, ptr %10, align 8
  call void @llvm.lifetime.start.p0(i64 8, ptr %11) #6
  call void @llvm.lifetime.start.p0(i64 8, ptr %12) #6
  call void @llvm.lifetime.start.p0(i64 1, ptr %13) #6
  call void @llvm.lifetime.start.p0(i64 4, ptr %14) #6
  call void @llvm.lifetime.start.p0(i64 2, ptr %15) #6
  call void @llvm.lifetime.start.p0(i64 24, ptr %16) #6
  call void @llvm.lifetime.start.p0(i64 8, ptr %17) #6
  %18 = load ptr, ptr %6, align 8
  %19 = load i32, ptr %7, align 4
  %20 = load ptr, ptr %9, align 8
  %21 = load ptr, ptr %10, align 8
  %22 = load i32, ptr %21, align 4
  %23 = call ptr @proto_tree_add_string(ptr noundef %18, i32 noundef %19, ptr noundef %20, i32 noundef %22, i32 noundef -1, ptr noundef @.str.174)
  store ptr %23, ptr %11, align 8
  %24 = load ptr, ptr %11, align 8
  %25 = load i32, ptr @ett_raknet_system_address, align 4
  %26 = call ptr @proto_item_add_subtree(ptr noundef %24, i32 noundef %25)
  store ptr %26, ptr %12, align 8
  %27 = load ptr, ptr %9, align 8
  %28 = load ptr, ptr %10, align 8
  %29 = load i32, ptr %28, align 4
  %30 = call zeroext i8 @tvb_get_uint8(ptr noundef %27, i32 noundef %29)
  store i8 %30, ptr %13, align 1
  %31 = load ptr, ptr %12, align 8
  %32 = load i32, ptr @hf_raknet_ip_version, align 4
  %33 = load ptr, ptr %9, align 8
  %34 = load ptr, ptr %10, align 8
  %35 = load i32, ptr %34, align 4
  %36 = call ptr @proto_tree_add_item(ptr noundef %31, i32 noundef %32, ptr noundef %33, i32 noundef %35, i32 noundef 1, i32 noundef 0)
  %37 = load ptr, ptr %10, align 8
  %38 = load i32, ptr %37, align 4
  %39 = add i32 %38, 1
  store i32 %39, ptr %37, align 4
  %40 = load i8, ptr %13, align 1
  %41 = zext i8 %40 to i32
  switch i32 %41, label %115 [
    i32 4, label %42
    i32 6, label %80
  ]

42:                                               ; preds = %5
  %43 = load ptr, ptr %9, align 8
  %44 = load ptr, ptr %10, align 8
  %45 = load i32, ptr %44, align 4
  %46 = call i32 @tvb_get_ipv4(ptr noundef %43, i32 noundef %45)
  %47 = xor i32 %46, -1
  store i32 %47, ptr %14, align 4
  call void @set_address(ptr noundef %16, i32 noundef 2, i32 noundef 4, ptr noundef %14)
  %48 = load ptr, ptr %8, align 8
  %49 = getelementptr inbounds nuw %struct._packet_info, ptr %48, i32 0, i32 51
  %50 = load ptr, ptr %49, align 8
  %51 = call ptr @address_to_display(ptr noundef %50, ptr noundef %16)
  store ptr %51, ptr %17, align 8
  %52 = load ptr, ptr %12, align 8
  %53 = load i32, ptr @hf_raknet_ipv4_address, align 4
  %54 = load ptr, ptr %9, align 8
  %55 = load ptr, ptr %10, align 8
  %56 = load i32, ptr %55, align 4
  %57 = load i32, ptr %14, align 4
  %58 = call ptr @proto_tree_add_ipv4(ptr noundef %52, i32 noundef %53, ptr noundef %54, i32 noundef %56, i32 noundef 4, i32 noundef %57)
  %59 = load ptr, ptr %10, align 8
  %60 = load i32, ptr %59, align 4
  %61 = add i32 %60, 4
  store i32 %61, ptr %59, align 4
  %62 = load ptr, ptr %9, align 8
  %63 = load ptr, ptr %10, align 8
  %64 = load i32, ptr %63, align 4
  %65 = call zeroext i16 @tvb_get_ntohs(ptr noundef %62, i32 noundef %64)
  store i16 %65, ptr %15, align 2
  %66 = load ptr, ptr %12, align 8
  %67 = load i32, ptr @hf_raknet_port, align 4
  %68 = load ptr, ptr %9, align 8
  %69 = load ptr, ptr %10, align 8
  %70 = load i32, ptr %69, align 4
  %71 = call ptr @proto_tree_add_item(ptr noundef %66, i32 noundef %67, ptr noundef %68, i32 noundef %70, i32 noundef 2, i32 noundef 0)
  %72 = load ptr, ptr %10, align 8
  %73 = load i32, ptr %72, align 4
  %74 = add i32 %73, 2
  store i32 %74, ptr %72, align 4
  %75 = load ptr, ptr %11, align 8
  call void @proto_item_set_len(ptr noundef %75, i32 noundef 7)
  %76 = load ptr, ptr %11, align 8
  %77 = load ptr, ptr %17, align 8
  %78 = load i16, ptr %15, align 2
  %79 = zext i16 %78 to i32
  call void (ptr, ptr, ...) @proto_item_append_text(ptr noundef %76, ptr noundef @.str.207, ptr noundef %77, i32 noundef %79)
  br label %120

80:                                               ; preds = %5
  %81 = load ptr, ptr %8, align 8
  %82 = getelementptr inbounds nuw %struct._packet_info, ptr %81, i32 0, i32 51
  %83 = load ptr, ptr %82, align 8
  %84 = load ptr, ptr %9, align 8
  %85 = load ptr, ptr %10, align 8
  %86 = load i32, ptr %85, align 4
  %87 = call ptr @tvb_address_to_str(ptr noundef %83, ptr noundef %84, i32 noundef 3, i32 noundef %86)
  store ptr %87, ptr %17, align 8
  %88 = load ptr, ptr %12, align 8
  %89 = load i32, ptr @hf_raknet_ipv6_address, align 4
  %90 = load ptr, ptr %9, align 8
  %91 = load ptr, ptr %10, align 8
  %92 = load i32, ptr %91, align 4
  %93 = call ptr @proto_tree_add_item(ptr noundef %88, i32 noundef %89, ptr noundef %90, i32 noundef %92, i32 noundef 16, i32 noundef 0)
  %94 = load ptr, ptr %10, align 8
  %95 = load i32, ptr %94, align 4
  %96 = add i32 %95, 16
  store i32 %96, ptr %94, align 4
  %97 = load ptr, ptr %9, align 8
  %98 = load ptr, ptr %10, align 8
  %99 = load i32, ptr %98, align 4
  %100 = call zeroext i16 @tvb_get_ntohs(ptr noundef %97, i32 noundef %99)
  store i16 %100, ptr %15, align 2
  %101 = load ptr, ptr %12, align 8
  %102 = load i32, ptr @hf_raknet_port, align 4
  %103 = load ptr, ptr %9, align 8
  %104 = load ptr, ptr %10, align 8
  %105 = load i32, ptr %104, align 4
  %106 = call ptr @proto_tree_add_item(ptr noundef %101, i32 noundef %102, ptr noundef %103, i32 noundef %105, i32 noundef 2, i32 noundef 0)
  %107 = load ptr, ptr %10, align 8
  %108 = load i32, ptr %107, align 4
  %109 = add i32 %108, 2
  store i32 %109, ptr %107, align 4
  %110 = load ptr, ptr %11, align 8
  call void @proto_item_set_len(ptr noundef %110, i32 noundef 19)
  %111 = load ptr, ptr %11, align 8
  %112 = load ptr, ptr %17, align 8
  %113 = load i16, ptr %15, align 2
  %114 = zext i16 %113 to i32
  call void (ptr, ptr, ...) @proto_item_append_text(ptr noundef %111, ptr noundef @.str.208, ptr noundef %112, i32 noundef %114)
  br label %120

115:                                              ; preds = %5
  %116 = load ptr, ptr %11, align 8
  call void @proto_item_set_len(ptr noundef %116, i32 noundef 1)
  %117 = load ptr, ptr %8, align 8
  %118 = load ptr, ptr %12, align 8
  %119 = call ptr @expert_add_info(ptr noundef %117, ptr noundef %118, ptr noundef @ei_raknet_ip_ver_invalid)
  br label %120

120:                                              ; preds = %115, %80, %42
  call void @llvm.lifetime.end.p0(i64 8, ptr %17) #6
  call void @llvm.lifetime.end.p0(i64 24, ptr %16) #6
  call void @llvm.lifetime.end.p0(i64 2, ptr %15) #6
  call void @llvm.lifetime.end.p0(i64 4, ptr %14) #6
  call void @llvm.lifetime.end.p0(i64 1, ptr %13) #6
  call void @llvm.lifetime.end.p0(i64 8, ptr %12) #6
  call void @llvm.lifetime.end.p0(i64 8, ptr %11) #6
  ret void
}