; Function Attrs: null_pointer_is_valid sspstrong uwtable
define internal fastcc void @raknet_dissect_system_address(ptr noundef %0, i32 noundef %1, ptr noundef %2, ptr noundef %3, ptr noundef captures(none) %4) unnamed_addr #0 {
  %6 = alloca i32, align 4
  %7 = alloca %struct._address, align 8
  call void @llvm.lifetime.start.p0(i64 4, ptr nonnull %6) #5
  call void @llvm.lifetime.start.p0(i64 24, ptr nonnull %7) #5
  %8 = load i32, ptr %4, align 4
  %9 = tail call ptr @proto_tree_add_string(ptr noundef %0, i32 noundef %1, ptr noundef %3, i32 noundef %8, i32 noundef -1, ptr noundef nonnull @.str.174)
  %10 = load i32, ptr @ett_raknet_system_address, align 4
  %11 = tail call ptr @proto_item_add_subtree(ptr noundef %9, i32 noundef %10)
  %12 = load i32, ptr %4, align 4
  %13 = tail call zeroext i8 @tvb_get_uint8(ptr noundef %3, i32 noundef %12)
  %14 = load i32, ptr @hf_raknet_ip_version, align 4
  %15 = load i32, ptr %4, align 4
  %16 = tail call ptr @proto_tree_add_item(ptr noundef %11, i32 noundef %14, ptr noundef %3, i32 noundef %15, i32 noundef 1, i32 noundef 0)
  %17 = load i32, ptr %4, align 4
  %18 = add i32 %17, 1
  store i32 %18, ptr %4, align 4
  switch i8 %13, label %57 [
    i8 4, label %19
    i8 6, label %41
  ]

19:                                               ; preds = %5
  %20 = tail call i32 @tvb_get_ipv4(ptr noundef %3, i32 noundef %18)
  %21 = xor i32 %20, -1
  store i32 %21, ptr %6, align 4
  store i32 2, ptr %7, align 8
  %22 = getelementptr inbounds nuw i8, ptr %7, i64 4
  store i32 4, ptr %22, align 4
  %23 = getelementptr inbounds nuw i8, ptr %7, i64 8
  store ptr %6, ptr %23, align 8
  %24 = getelementptr inbounds nuw i8, ptr %7, i64 16
  store ptr null, ptr %24, align 8
  %25 = getelementptr inbounds nuw i8, ptr %2, i64 408
  %26 = load ptr, ptr %25, align 8
  %27 = call ptr @address_to_display(ptr noundef %26, ptr noundef nonnull %7)
  %28 = load i32, ptr @hf_raknet_ipv4_address, align 4
  %29 = load i32, ptr %4, align 4
  %30 = load i32, ptr %6, align 4
  %31 = call ptr @proto_tree_add_ipv4(ptr noundef %11, i32 noundef %28, ptr noundef %3, i32 noundef %29, i32 noundef 4, i32 noundef %30)
  %32 = load i32, ptr %4, align 4
  %33 = add i32 %32, 4
  store i32 %33, ptr %4, align 4
  %34 = call zeroext i16 @tvb_get_ntohs(ptr noundef %3, i32 noundef %33)
  %35 = load i32, ptr @hf_raknet_port, align 4
  %36 = load i32, ptr %4, align 4
  %37 = call ptr @proto_tree_add_item(ptr noundef %11, i32 noundef %35, ptr noundef %3, i32 noundef %36, i32 noundef 2, i32 noundef 0)
  %38 = load i32, ptr %4, align 4
  %39 = add i32 %38, 2
  store i32 %39, ptr %4, align 4
  call void @proto_item_set_len(ptr noundef %9, i32 noundef 7)
  %40 = zext i16 %34 to i32
  call void (ptr, ptr, ...) @proto_item_append_text(ptr noundef %9, ptr noundef nonnull @.str.207, ptr noundef %27, i32 noundef %40)
  br label %59

41:                                               ; preds = %5
  %42 = getelementptr inbounds nuw i8, ptr %2, i64 408
  %43 = load ptr, ptr %42, align 8
  %44 = tail call ptr @tvb_address_to_str(ptr noundef %43, ptr noundef %3, i32 noundef 3, i32 noundef %18)
  %45 = load i32, ptr @hf_raknet_ipv6_address, align 4
  %46 = load i32, ptr %4, align 4
  %47 = tail call ptr @proto_tree_add_item(ptr noundef %11, i32 noundef %45, ptr noundef %3, i32 noundef %46, i32 noundef 16, i32 noundef 0)
  %48 = load i32, ptr %4, align 4
  %49 = add i32 %48, 16
  store i32 %49, ptr %4, align 4
  %50 = tail call zeroext i16 @tvb_get_ntohs(ptr noundef %3, i32 noundef %49)
  %51 = load i32, ptr @hf_raknet_port, align 4
  %52 = load i32, ptr %4, align 4
  %53 = tail call ptr @proto_tree_add_item(ptr noundef %11, i32 noundef %51, ptr noundef %3, i32 noundef %52, i32 noundef 2, i32 noundef 0)
  %54 = load i32, ptr %4, align 4
  %55 = add i32 %54, 2
  store i32 %55, ptr %4, align 4
  tail call void @proto_item_set_len(ptr noundef %9, i32 noundef 19)
  %56 = zext i16 %50 to i32
  tail call void (ptr, ptr, ...) @proto_item_append_text(ptr noundef %9, ptr noundef nonnull @.str.208, ptr noundef %44, i32 noundef %56)
  br label %59

57:                                               ; preds = %5
  tail call void @proto_item_set_len(ptr noundef %9, i32 noundef 1)
  %58 = tail call ptr @expert_add_info(ptr noundef %2, ptr noundef %11, ptr noundef nonnull @ei_raknet_ip_ver_invalid)
  br label %59

59:                                               ; preds = %57, %41, %19
  call void @llvm.lifetime.end.p0(i64 24, ptr nonnull %7) #5
  call void @llvm.lifetime.end.p0(i64 4, ptr nonnull %6) #5
  ret void
}